
out:     file format elf32-littleriscv


Disassembly of section .text:

00010074 <main>:
   10074:	ff010113          	add	sp,sp,-16
   10078:	00112623          	sw	ra,12(sp)
   1007c:	00812423          	sw	s0,8(sp)
   10080:	01010413          	add	s0,sp,16
   10084:	008000ef          	jal	1008c <authenticate>
   10088:	ffdff06f          	j	10084 <main+0x10>

0001008c <authenticate>:
   1008c:	fb010113          	add	sp,sp,-80
   10090:	04812623          	sw	s0,76(sp)
   10094:	05010413          	add	s0,sp,80
   10098:	fe042623          	sw	zero,-20(s0)
   1009c:	fe042423          	sw	zero,-24(s0)
   100a0:	fe042223          	sw	zero,-28(s0)
   100a4:	fe042023          	sw	zero,-32(s0)
   100a8:	fec42783          	lw	a5,-20(s0)
   100ac:	00679793          	sll	a5,a5,0x6
   100b0:	fcf42e23          	sw	a5,-36(s0)
   100b4:	fe842783          	lw	a5,-24(s0)
   100b8:	00779793          	sll	a5,a5,0x7
   100bc:	fcf42c23          	sw	a5,-40(s0)
   100c0:	fe442783          	lw	a5,-28(s0)
   100c4:	00879793          	sll	a5,a5,0x8
   100c8:	fcf42a23          	sw	a5,-44(s0)
   100cc:	fe042783          	lw	a5,-32(s0)
   100d0:	00979793          	sll	a5,a5,0x9
   100d4:	fcf42823          	sw	a5,-48(s0)
   100d8:	fdc42783          	lw	a5,-36(s0)
   100dc:	fd842703          	lw	a4,-40(s0)
   100e0:	fd442683          	lw	a3,-44(s0)
   100e4:	fd042603          	lw	a2,-48(s0)
   100e8:	00ff6f33          	or	t5,t5,a5
   100ec:	00ef6f33          	or	t5,t5,a4
   100f0:	00df6f33          	or	t5,t5,a3
   100f4:	00cf6f33          	or	t5,t5,a2
   100f8:	001f7793          	and	a5,t5,1
   100fc:	fcf42623          	sw	a5,-52(s0)
   10100:	002f7793          	and	a5,t5,2
   10104:	fcf42423          	sw	a5,-56(s0)
   10108:	004f7793          	and	a5,t5,4
   1010c:	fcf42223          	sw	a5,-60(s0)
   10110:	008f7793          	and	a5,t5,8
   10114:	fcf42023          	sw	a5,-64(s0)
   10118:	010f7793          	and	a5,t5,16
   1011c:	faf42e23          	sw	a5,-68(s0)
   10120:	020f7793          	and	a5,t5,32
   10124:	faf42c23          	sw	a5,-72(s0)
   10128:	fcc42783          	lw	a5,-52(s0)
   1012c:	0e078e63          	beqz	a5,10228 <authenticate+0x19c>
   10130:	fc842783          	lw	a5,-56(s0)
   10134:	0e078a63          	beqz	a5,10228 <authenticate+0x19c>
   10138:	fc442783          	lw	a5,-60(s0)
   1013c:	0e079663          	bnez	a5,10228 <authenticate+0x19c>
   10140:	fc042783          	lw	a5,-64(s0)
   10144:	0e078263          	beqz	a5,10228 <authenticate+0x19c>
   10148:	fbc42783          	lw	a5,-68(s0)
   1014c:	02078263          	beqz	a5,10170 <authenticate+0xe4>
   10150:	fb842783          	lw	a5,-72(s0)
   10154:	00078e63          	beqz	a5,10170 <authenticate+0xe4>
   10158:	00100793          	li	a5,1
   1015c:	fef42623          	sw	a5,-20(s0)
   10160:	fe042423          	sw	zero,-24(s0)
   10164:	fe042223          	sw	zero,-28(s0)
   10168:	fe042023          	sw	zero,-32(s0)
   1016c:	0680006f          	j	101d4 <authenticate+0x148>
   10170:	fbc42783          	lw	a5,-68(s0)
   10174:	02078063          	beqz	a5,10194 <authenticate+0x108>
   10178:	00100793          	li	a5,1
   1017c:	fef42623          	sw	a5,-20(s0)
   10180:	fe042423          	sw	zero,-24(s0)
   10184:	fe042223          	sw	zero,-28(s0)
   10188:	00100793          	li	a5,1
   1018c:	fef42023          	sw	a5,-32(s0)
   10190:	0440006f          	j	101d4 <authenticate+0x148>
   10194:	fb842783          	lw	a5,-72(s0)
   10198:	02078063          	beqz	a5,101b8 <authenticate+0x12c>
   1019c:	00100793          	li	a5,1
   101a0:	fef42623          	sw	a5,-20(s0)
   101a4:	fe042423          	sw	zero,-24(s0)
   101a8:	00100793          	li	a5,1
   101ac:	fef42223          	sw	a5,-28(s0)
   101b0:	fe042023          	sw	zero,-32(s0)
   101b4:	0200006f          	j	101d4 <authenticate+0x148>
   101b8:	00100793          	li	a5,1
   101bc:	fef42623          	sw	a5,-20(s0)
   101c0:	fe042423          	sw	zero,-24(s0)
   101c4:	00100793          	li	a5,1
   101c8:	fef42223          	sw	a5,-28(s0)
   101cc:	00100793          	li	a5,1
   101d0:	fef42023          	sw	a5,-32(s0)
   101d4:	fec42783          	lw	a5,-20(s0)
   101d8:	00679793          	sll	a5,a5,0x6
   101dc:	fcf42e23          	sw	a5,-36(s0)
   101e0:	fe842783          	lw	a5,-24(s0)
   101e4:	00779793          	sll	a5,a5,0x7
   101e8:	fcf42c23          	sw	a5,-40(s0)
   101ec:	fe442783          	lw	a5,-28(s0)
   101f0:	00879793          	sll	a5,a5,0x8
   101f4:	fcf42a23          	sw	a5,-44(s0)
   101f8:	fe042783          	lw	a5,-32(s0)
   101fc:	00979793          	sll	a5,a5,0x9
   10200:	fcf42823          	sw	a5,-48(s0)
   10204:	fdc42783          	lw	a5,-36(s0)
   10208:	fd842703          	lw	a4,-40(s0)
   1020c:	fd442683          	lw	a3,-44(s0)
   10210:	fd042603          	lw	a2,-48(s0)
   10214:	00ff6f33          	or	t5,t5,a5
   10218:	00ef6f33          	or	t5,t5,a4
   1021c:	00df6f33          	or	t5,t5,a3
   10220:	00cf6f33          	or	t5,t5,a2
   10224:	06c0006f          	j	10290 <authenticate+0x204>
   10228:	fe042623          	sw	zero,-20(s0)
   1022c:	00100793          	li	a5,1
   10230:	fef42423          	sw	a5,-24(s0)
   10234:	fe042223          	sw	zero,-28(s0)
   10238:	fe042023          	sw	zero,-32(s0)
   1023c:	fec42783          	lw	a5,-20(s0)
   10240:	00679793          	sll	a5,a5,0x6
   10244:	fcf42e23          	sw	a5,-36(s0)
   10248:	fe842783          	lw	a5,-24(s0)
   1024c:	00779793          	sll	a5,a5,0x7
   10250:	fcf42c23          	sw	a5,-40(s0)
   10254:	fe442783          	lw	a5,-28(s0)
   10258:	00879793          	sll	a5,a5,0x8
   1025c:	fcf42a23          	sw	a5,-44(s0)
   10260:	fe042783          	lw	a5,-32(s0)
   10264:	00979793          	sll	a5,a5,0x9
   10268:	fcf42823          	sw	a5,-48(s0)
   1026c:	fdc42783          	lw	a5,-36(s0)
   10270:	fd842703          	lw	a4,-40(s0)
   10274:	fd442683          	lw	a3,-44(s0)
   10278:	fd042603          	lw	a2,-48(s0)
   1027c:	00ff6f33          	or	t5,t5,a5
   10280:	00ef6f33          	or	t5,t5,a4
   10284:	00df6f33          	or	t5,t5,a3
   10288:	00cf6f33          	or	t5,t5,a2
   1028c:	00000013          	nop
   10290:	00000013          	nop
   10294:	04c12403          	lw	s0,76(sp)
   10298:	05010113          	add	sp,sp,80
   1029c:	00008067          	ret
